; Function Attrs: mustprogress uwtable
define void @_ZN6icu_7513UnicodeString8fromUTF8ENS_11StringPieceE(ptr noalias nonnull sret(%"class.icu_75::UnicodeString") align 8 %agg.result, ptr %utf8.coerce0, i32 %utf8.coerce1) local_unnamed_addr #5 align 2 personality ptr @__gxx_personality_v0 {
entry:
  store ptr getelementptr inbounds ({ [13 x ptr] }, ptr @_ZTVN6icu_7513UnicodeStringE, i64 0, i32 0, i64 2), ptr %agg.result, align 8
  %fUnion2.i = getelementptr inbounds i8, ptr %agg.result, i64 8
  store i16 2, ptr %fUnion2.i, align 8
  %call = invoke noundef nonnull align 8 dereferenceable(64) ptr @_ZN6icu_7513UnicodeString9setToUTF8ENS_11StringPieceE(ptr noundef nonnull align 8 dereferenceable(64) %agg.result, ptr %utf8.coerce0, i32 %utf8.coerce1)
          to label %nrvo.skipdtor unwind label %lpad

lpad:                                             ; preds = %entry
  %0 = landingpad { ptr, i32 }
          cleanup
  tail call void @_ZN6icu_7513UnicodeStringD1Ev(ptr noundef nonnull align 8 dereferenceable(64) %agg.result) #22
  resume { ptr, i32 } %0

nrvo.skipdtor:                                    ; preds = %entry
  ret void
}